; Function Attrs: mustprogress nounwind uwtable
define internal fastcc void @_ZNSt13unordered_mapIN3ade6HandleINS0_4NodeEEEN12_GLOBAL__N_118CallbackCacheEntryENS0_12HandleHasherIS2_EESt8equal_toIS3_ESaISt4pairIKS3_S5_EEED2Ev(ptr noundef nonnull align 8 dereferenceable(64) %0) unnamed_addr #4 align 2 personality ptr @__gxx_personality_v0 {
  %2 = getelementptr inbounds i8, ptr %0, i64 24
  %.val.i.i = load ptr, ptr %2, align 8
  %.not1.i.i.i = icmp eq ptr %.val.i.i, null
  br i1 %.not1.i.i.i, label %_ZNSt10_HashtableIN3ade6HandleINS0_4NodeEEESt4pairIKS3_N12_GLOBAL__N_118CallbackCacheEntryEESaIS8_ENSt8__detail10_Select1stESt8equal_toIS3_ENS0_12HandleHasherIS2_EENSA_18_Mod_range_hashingENSA_20_Default_ranged_hashENSA_20_Prime_rehash_policyENSA_17_Hashtable_traitsILb1ELb0ELb1EEEE5clearEv.exit.i, label %.lr.ph.i.i.i

.lr.ph.i.i.i:                                     ; preds = %1, %.noexc.i.i
  %.02.i.i.i = phi ptr [ %.0.val.i.i.i, %.noexc.i.i ], [ %.val.i.i, %1 ]
  %.0.val.i.i.i = load ptr, ptr %.02.i.i.i, align 8
  invoke fastcc void @_ZNSt8__detail16_Hashtable_allocISaINS_10_Hash_nodeISt4pairIKN3ade6HandleINS3_4NodeEEEN12_GLOBAL__N_118CallbackCacheEntryEELb1EEEEE18_M_deallocate_nodeEPSB_(ptr noundef nonnull %.02.i.i.i)
          to label %.noexc.i.i unwind label %3

.noexc.i.i:                                       ; preds = %.lr.ph.i.i.i
  %.not.i.i.i = icmp eq ptr %.0.val.i.i.i, null
  br i1 %.not.i.i.i, label %_ZNSt10_HashtableIN3ade6HandleINS0_4NodeEEESt4pairIKS3_N12_GLOBAL__N_118CallbackCacheEntryEESaIS8_ENSt8__detail10_Select1stESt8equal_toIS3_ENS0_12HandleHasherIS2_EENSA_18_Mod_range_hashingENSA_20_Default_ranged_hashENSA_20_Prime_rehash_policyENSA_17_Hashtable_traitsILb1ELb0ELb1EEEE5clearEv.exit.i, label %.lr.ph.i.i.i, !llvm.loop !144

3:                                                ; preds = %.lr.ph.i.i.i
  %4 = landingpad { ptr, i32 }
          catch ptr null
  %5 = extractvalue { ptr, i32 } %4, 0
  tail call void @__clang_call_terminate(ptr %5) #23
  unreachable

_ZNSt10_HashtableIN3ade6HandleINS0_4NodeEEESt4pairIKS3_N12_GLOBAL__N_118CallbackCacheEntryEESaIS8_ENSt8__detail10_Select1stESt8equal_toIS3_ENS0_12HandleHasherIS2_EENSA_18_Mod_range_hashingENSA_20_Default_ranged_hashENSA_20_Prime_rehash_policyENSA_17_Hashtable_traitsILb1ELb0ELb1EEEE5clearEv.exit.i: ; preds = %.noexc.i.i, %1
  %6 = getelementptr inbounds i8, ptr %0, i64 8
  %7 = load ptr, ptr %6, align 8
  %8 = getelementptr inbounds i8, ptr %0, i64 16
  %9 = load i64, ptr %8, align 8
  %10 = shl i64 %9, 3
  tail call void @llvm.memset.p0.i64(ptr align 8 %7, i8 0, i64 %10, i1 false)
  tail call void @llvm.memset.p0.i64(ptr noundef nonnull align 8 dereferenceable(16) %2, i8 0, i64 16, i1 false)
  %11 = load ptr, ptr %6, align 8
  %12 = getelementptr inbounds i8, ptr %0, i64 56
  %13 = icmp eq ptr %12, %11
  br i1 %13, label %_ZNSt10_HashtableIN3ade6HandleINS0_4NodeEEESt4pairIKS3_N12_GLOBAL__N_118CallbackCacheEntryEESaIS8_ENSt8__detail10_Select1stESt8equal_toIS3_ENS0_12HandleHasherIS2_EENSA_18_Mod_range_hashingENSA_20_Default_ranged_hashENSA_20_Prime_rehash_policyENSA_17_Hashtable_traitsILb1ELb0ELb1EEEED2Ev.exit, label %14

14:                                               ; preds = %_ZNSt10_HashtableIN3ade6HandleINS0_4NodeEEESt4pairIKS3_N12_GLOBAL__N_118CallbackCacheEntryEESaIS8_ENSt8__detail10_Select1stESt8equal_toIS3_ENS0_12HandleHasherIS2_EENSA_18_Mod_range_hashingENSA_20_Default_ranged_hashENSA_20_Prime_rehash_policyENSA_17_Hashtable_traitsILb1ELb0ELb1EEEE5clearEv.exit.i
  tail call void @_ZdlPv(ptr noundef %11) #21
  br label %_ZNSt10_HashtableIN3ade6HandleINS0_4NodeEEESt4pairIKS3_N12_GLOBAL__N_118CallbackCacheEntryEESaIS8_ENSt8__detail10_Select1stESt8equal_toIS3_ENS0_12HandleHasherIS2_EENSA_18_Mod_range_hashingENSA_20_Default_ranged_hashENSA_20_Prime_rehash_policyENSA_17_Hashtable_traitsILb1ELb0ELb1EEEED2Ev.exit

_ZNSt10_HashtableIN3ade6HandleINS0_4NodeEEESt4pairIKS3_N12_GLOBAL__N_118CallbackCacheEntryEESaIS8_ENSt8__detail10_Select1stESt8equal_toIS3_ENS0_12HandleHasherIS2_EENSA_18_Mod_range_hashingENSA_20_Default_ranged_hashENSA_20_Prime_rehash_policyENSA_17_Hashtable_traitsILb1ELb0ELb1EEEED2Ev.exit: ; preds = %_ZNSt10_HashtableIN3ade6HandleINS0_4NodeEEESt4pairIKS3_N12_GLOBAL__N_118CallbackCacheEntryEESaIS8_ENSt8__detail10_Select1stESt8equal_toIS3_ENS0_12HandleHasherIS2_EENSA_18_Mod_range_hashingENSA_20_Default_ranged_hashENSA_20_Prime_rehash_policyENSA_17_Hashtable_traitsILb1ELb0ELb1EEEE5clearEv.exit.i, %14
  ret void
}